c__builtin__
set
p0
((lp1
Vall
p2
aVjust
p3
aVbeing
p4
aVover
p5
aVboth
p6
aVthrough
p7
aVyourselves
p8
aVits
p9
aVbefore
p10
aVo
p11
aVhadn
p12
aVherself
p13
aVll
p14
aVhad
p15
aVshould
p16
aVto
p17
aVonly
p18
aVwon
p19
aVunder
p20
aVours
p21
aVhas
p22
aVdo
p23
aVthem
p24
aVhis
p25
aVvery
p26
aVthey
p27
aVnot
p28
aVduring
p29
aVnow
p30
aVhim
p31
aVnor
p32
aVd
p33
aVdid
p34
aVdidn
p35
aVthis
p36
aVshe
p37
aVeach
p38
aVfurther
p39
aVwhere
p40
aVfew
p41
aVbecause
p42
aVdoing
p43
aVsome
p44
aVhasn
p45
aVare
p46
aVour
p47
aVourselves
p48
aVout
p49
aVwhat
p50
aVfor
p51
aVwhile
p52
aVre
p53
aVdoes
p54
aVabove
p55
aVbetween
p56
aVmustn
p57
aVt
p58
aVbe
p59
aVwe
p60
aVwho
p61
aVwere
p62
aVhere
p63
aVshouldn
p64
aVhers
p65
aVby
p66
aVon
p67
aVabout
p68
aVcouldn
p69
aVof
p70
aVagainst
p71
aVs
p72
aVisn
p73
aVor
p74
aVown
p75
aVinto
p76
aVyourself
p77
aVdown
p78
aVmightn
p79
aVwasn
p80
aVyour
p81
aVfrom
p82
aVher
p83
aVtheir
p84
aVaren
p85
aVthere
p86
aVbeen
p87
aVwhom
p88
aVtoo
p89
aVwouldn
p90
aVthemselves
p91
aVweren
p92
aVwas
p93
aVuntil
p94
aVmore
p95
aVhimself
p96
aVthat
p97
aVbut
p98
aVdon
p99
aVwith
p100
aVthan
p101
aVthose
p102
aVhe
p103
aVme
p104
aVmyself
p105
aVma
p106
aVthese
p107
aVup
p108
aVwill
p109
aVbelow
p110
aVain
p111
aVcan
p112
aVtheirs
p113
aVmy
p114
aVand
p115
aVve
p116
aVthen
p117
aVis
p118
aVam
p119
aVit
p120
aVdoesn
p121
aVan
p122
aVas
p123
aVitself
p124
aVat
p125
aVhave
p126
aVin
p127
aVany
p128
aVif
p129
aVagain
p130
aVno
p131
aVwhen
p132
aVsame
p133
aVhow
p134
aVother
p135
aVwhich
p136
aVyou
p137
aVshan
p138
aVneedn
p139
aVhaven
p140
aVafter
p141
aVmost
p142
aVsuch
p143
aVwhy
p144
aVa
p145
aVoff
p146
aVi
p147
aVm
p148
aVyours
p149
aVso
p150
aVy
p151
aVthe
p152
aVhaving
p153
aVonce
p154
atp155
Rp156
.